target datalayout = "e-m:e-p270:32:32-p271:32:32-p272:64:64-i64:64-i128:128-f80:128-n8:16:32:64-S128"
target triple = "x86_64-pc-linux-gnu"

%struct._object = type { %union.anon, ptr }
%union.anon = type { i64 }
%struct.PySocketSockObject = type { %struct._object, i32, i32, i32, i32, ptr, i64, ptr }
%struct.sock_recvmsg = type { ptr, i32, i64 }

; Function Attrs: inlinehint nounwind uwtable
define internal i32 @get_sock_fd(ptr noundef %0) #3 {
  %2 = alloca ptr, align 8
  store ptr %0, ptr %2, align 8, !tbaa !8
  %3 = load ptr, ptr %2, align 8, !tbaa !8
  %4 = getelementptr inbounds nuw %struct.PySocketSockObject, ptr %3, i32 0, i32 1
  %5 = load i32, ptr %4, align 8, !tbaa !113
  ret i32 %5
}

; Function Attrs: nounwind uwtable
define internal i32 @sock_recvmsg_impl(ptr noundef %0, ptr noundef %1) #0 {
  %3 = alloca ptr, align 8
  %4 = alloca ptr, align 8
  %5 = alloca ptr, align 8
  store ptr %0, ptr %3, align 8, !tbaa !8
  store ptr %1, ptr %4, align 8, !tbaa !8
  call void @llvm.lifetime.start.p0(i64 8, ptr %5) #10
  %6 = load ptr, ptr %4, align 8, !tbaa !8
  store ptr %6, ptr %5, align 8, !tbaa !294
  %7 = load ptr, ptr %3, align 8, !tbaa !8
  %8 = call i32 @get_sock_fd(ptr noundef %7)
  %9 = load ptr, ptr %5, align 8, !tbaa !294
  %10 = getelementptr inbounds nuw %struct.sock_recvmsg, ptr %9, i32 0, i32 0
  %11 = load ptr, ptr %10, align 8, !tbaa !286
  %12 = load ptr, ptr %5, align 8, !tbaa !294
  %13 = getelementptr inbounds nuw %struct.sock_recvmsg, ptr %12, i32 0, i32 1
  %14 = load i32, ptr %13, align 8, !tbaa !288
  %15 = call i64 @recvmsg(i32 noundef %8, ptr noundef %11, i32 noundef %14)
  %16 = load ptr, ptr %5, align 8, !tbaa !294
  %17 = getelementptr inbounds nuw %struct.sock_recvmsg, ptr %16, i32 0, i32 2
  store i64 %15, ptr %17, align 8, !tbaa !290
  %18 = load ptr, ptr %5, align 8, !tbaa !294
  %19 = getelementptr inbounds nuw %struct.sock_recvmsg, ptr %18, i32 0, i32 2
  %20 = load i64, ptr %19, align 8, !tbaa !290
  %21 = icmp sge i64 %20, 0
  %22 = zext i1 %21 to i32
  call void @llvm.lifetime.end.p0(i64 8, ptr %5) #10
  ret i32 %22
}