; Function Attrs: nounwind uwtable
define internal range(i32 0, 2) i32 @sock_recvmsg_impl(ptr noundef readonly captures(none) %0, ptr noundef captures(none) initializes((16, 24)) %1) #0 {
  %3 = getelementptr i8, ptr %0, i64 16
  %.val = load i32, ptr %3, align 8, !tbaa !83
  %4 = load ptr, ptr %1, align 8, !tbaa !222
  %5 = getelementptr inbounds nuw i8, ptr %1, i64 8
  %6 = load i32, ptr %5, align 8, !tbaa !224
  %7 = tail call i64 @recvmsg(i32 noundef %.val, ptr noundef %4, i32 noundef %6) #13
  %8 = getelementptr inbounds nuw i8, ptr %1, i64 16
  store i64 %7, ptr %8, align 8, !tbaa !226
  %9 = icmp sgt i64 %7, -1
  %10 = zext i1 %9 to i32
  ret i32 %10
}